; ModuleID = '38/1273.c'
source_filename = "38/1273.c"
target datalayout = "e-m:e-p270:32:32-p271:32:32-p272:64:64-i64:64-f80:128-n8:16:32:64-S128"
target triple = "x86_64-pc-linux-gnu"

@.str = private unnamed_addr constant [3 x i8] c"%d\00", align 1
@.str.1 = private unnamed_addr constant [4 x i8] c"%lf\00", align 1
@.str.2 = private unnamed_addr constant [7 x i8] c"%.5lf\0A\00", align 1

; Function Attrs: noinline nounwind uwtable
define dso_local i32 @main() #0 {
  %1 = alloca i32, align 4
  %2 = alloca i32, align 4
  %3 = alloca i32, align 4
  %4 = alloca i32, align 4
  %5 = alloca i32, align 4
  %6 = alloca i32, align 4
  %7 = alloca [1000 x double], align 16
  %8 = alloca [1000 x double], align 16
  %9 = alloca [10000 x double], align 16
  %10 = alloca [1000 x double], align 16
  %11 = alloca [1000 x double], align 16
  store i32 0, i32* %1, align 4
  store i32 0, i32* %6, align 4
  br label %12

12:                                               ; preds = %25, %0
  %13 = load i32, i32* %6, align 4
  %14 = icmp slt i32 %13, 1000
  br i1 %14, label %15, label %28

15:                                               ; preds = %12
  %16 = load i32, i32* %6, align 4
  %17 = sext i32 %16 to i64
  %18 = getelementptr inbounds [1000 x double], [1000 x double]* %10, i64 0, i64 %17
  store double 0.000000e+00, double* %18, align 8
  %19 = load i32, i32* %6, align 4
  %20 = sext i32 %19 to i64
  %21 = getelementptr inbounds [1000 x double], [1000 x double]* %11, i64 0, i64 %20
  store double 0.000000e+00, double* %21, align 8
  %22 = load i32, i32* %6, align 4
  %23 = sext i32 %22 to i64
  %24 = getelementptr inbounds [1000 x double], [1000 x double]* %8, i64 0, i64 %23
  store double 0.000000e+00, double* %24, align 8
  br label %25

25:                                               ; preds = %15
  %26 = load i32, i32* %6, align 4
  %27 = add nsw i32 %26, 1
  store i32 %27, i32* %6, align 4
  br label %12

28:                                               ; preds = %12
  %29 = call i32 (i8*, ...) @__isoc99_scanf(i8* getelementptr inbounds ([3 x i8], [3 x i8]* @.str, i64 0, i64 0), i32* %4)
  store i32 0, i32* %2, align 4
  br label %30

30:                                               ; preds = %112, %28
  %31 = load i32, i32* %2, align 4
  %32 = load i32, i32* %4, align 4
  %33 = icmp slt i32 %31, %32
  br i1 %33, label %34, label %115

34:                                               ; preds = %30
  %35 = call i32 (i8*, ...) @__isoc99_scanf(i8* getelementptr inbounds ([3 x i8], [3 x i8]* @.str, i64 0, i64 0), i32* %5)
  store i32 0, i32* %3, align 4
  br label %36

36:                                               ; preds = %54, %34
  %37 = load i32, i32* %3, align 4
  %38 = load i32, i32* %5, align 4
  %39 = icmp slt i32 %37, %38
  br i1 %39, label %40, label %57

40:                                               ; preds = %36
  %41 = load i32, i32* %3, align 4
  %42 = sext i32 %41 to i64
  %43 = getelementptr inbounds [1000 x double], [1000 x double]* %7, i64 0, i64 %42
  %44 = call i32 (i8*, ...) @__isoc99_scanf(i8* getelementptr inbounds ([4 x i8], [4 x i8]* @.str.1, i64 0, i64 0), double* %43)
  %45 = load i32, i32* %3, align 4
  %46 = sext i32 %45 to i64
  %47 = getelementptr inbounds [1000 x double], [1000 x double]* %7, i64 0, i64 %46
  %48 = load double, double* %47, align 8
  %49 = load i32, i32* %2, align 4
  %50 = sext i32 %49 to i64
  %51 = getelementptr inbounds [1000 x double], [1000 x double]* %10, i64 0, i64 %50
  %52 = load double, double* %51, align 8
  %53 = fadd double %52, %48
  store double %53, double* %51, align 8
  br label %54

54:                                               ; preds = %40
  %55 = load i32, i32* %3, align 4
  %56 = add nsw i32 %55, 1
  store i32 %56, i32* %3, align 4
  br label %36

57:                                               ; preds = %36
  %58 = load i32, i32* %2, align 4
  %59 = sext i32 %58 to i64
  %60 = getelementptr inbounds [1000 x double], [1000 x double]* %10, i64 0, i64 %59
  %61 = load double, double* %60, align 8
  %62 = load i32, i32* %5, align 4
  %63 = sitofp i32 %62 to double
  %64 = fdiv double %61, %63
  %65 = load i32, i32* %2, align 4
  %66 = sext i32 %65 to i64
  %67 = getelementptr inbounds [1000 x double], [1000 x double]* %8, i64 0, i64 %66
  store double %64, double* %67, align 8
  store i32 0, i32* %3, align 4
  br label %68

68:                                               ; preds = %108, %57
  %69 = load i32, i32* %3, align 4
  %70 = load i32, i32* %5, align 4
  %71 = icmp slt i32 %69, %70
  br i1 %71, label %72, label %111

72:                                               ; preds = %68
  %73 = load i32, i32* %3, align 4
  %74 = sext i32 %73 to i64
  %75 = getelementptr inbounds [1000 x double], [1000 x double]* %7, i64 0, i64 %74
  %76 = load double, double* %75, align 8
  %77 = load i32, i32* %2, align 4
  %78 = sext i32 %77 to i64
  %79 = getelementptr inbounds [1000 x double], [1000 x double]* %8, i64 0, i64 %78
  %80 = load double, double* %79, align 8
  %81 = fsub double %76, %80
  %82 = load i32, i32* %3, align 4
  %83 = sext i32 %82 to i64
  %84 = getelementptr inbounds [1000 x double], [1000 x double]* %7, i64 0, i64 %83
  %85 = load double, double* %84, align 8
  %86 = load i32, i32* %2, align 4
  %87 = sext i32 %86 to i64
  %88 = getelementptr inbounds [1000 x double], [1000 x double]* %8, i64 0, i64 %87
  %89 = load double, double* %88, align 8
  %90 = fsub double %85, %89
  %91 = fmul double %81, %90
  %92 = load i32, i32* %2, align 4
  %93 = sext i32 %92 to i64
  %94 = getelementptr inbounds [1000 x double], [1000 x double]* %11, i64 0, i64 %93
  %95 = load double, double* %94, align 8
  %96 = fadd double %95, %91
  store double %96, double* %94, align 8
  %97 = load i32, i32* %2, align 4
  %98 = sext i32 %97 to i64
  %99 = getelementptr inbounds [1000 x double], [1000 x double]* %11, i64 0, i64 %98
  %100 = load double, double* %99, align 8
  %101 = load i32, i32* %5, align 4
  %102 = sitofp i32 %101 to double
  %103 = fdiv double %100, %102
  %104 = call double @sqrt(double %103) #3
  %105 = load i32, i32* %2, align 4
  %106 = sext i32 %105 to i64
  %107 = getelementptr inbounds [10000 x double], [10000 x double]* %9, i64 0, i64 %106
  store double %104, double* %107, align 8
  br label %108

108:                                              ; preds = %72
  %109 = load i32, i32* %3, align 4
  %110 = add nsw i32 %109, 1
  store i32 %110, i32* %3, align 4
  br label %68

111:                                              ; preds = %68
  br label %112

112:                                              ; preds = %111
  %113 = load i32, i32* %2, align 4
  %114 = add nsw i32 %113, 1
  store i32 %114, i32* %2, align 4
  br label %30

115:                                              ; preds = %30
  store i32 0, i32* %2, align 4
  br label %116

116:                                              ; preds = %126, %115
  %117 = load i32, i32* %2, align 4
  %118 = load i32, i32* %4, align 4
  %119 = icmp slt i32 %117, %118
  br i1 %119, label %120, label %129

120:                                              ; preds = %116
  %121 = load i32, i32* %2, align 4
  %122 = sext i32 %121 to i64
  %123 = getelementptr inbounds [10000 x double], [10000 x double]* %9, i64 0, i64 %122
  %124 = load double, double* %123, align 8
  %125 = call i32 (i8*, ...) @printf(i8* getelementptr inbounds ([7 x i8], [7 x i8]* @.str.2, i64 0, i64 0), double %124)
  br label %126

126:                                              ; preds = %120
  %127 = load i32, i32* %2, align 4
  %128 = add nsw i32 %127, 1
  store i32 %128, i32* %2, align 4
  br label %116

129:                                              ; preds = %116
  ret i32 0
}

declare dso_local i32 @__isoc99_scanf(i8*, ...) #1

; Function Attrs: nounwind
declare dso_local double @sqrt(double) #2

declare dso_local i32 @printf(i8*, ...) #1


!llvm.module.flags = !{!0}
!llvm.ident = !{!1}

!0 = !{i32 1, !"wchar_size", i32 4}
!1 = !{!"clang version 10.0.0-4ubuntu1 "}
